target datalayout = "e-m:e-p270:32:32-p271:32:32-p272:64:64-i64:64-i128:128-f80:128-n8:16:32:64-S128"
target triple = "x86_64-pc-linux-gnu"

%"class.zmq::msg_t" = type { %union.anon }
%union.anon = type { %struct.anon }
%struct.anon = type { ptr, [34 x i8], i8, i8, i32, %"union.zmq::msg_t::group_t" }
%"union.zmq::msg_t::group_t" = type { %struct.anon.1 }
%struct.anon.1 = type { i8, ptr }
%"class.zmq::pipe_t" = type { %"class.zmq::object_t.base", [4 x i8], %"class.zmq::array_item_t.base", [4 x i8], %"class.zmq::array_item_t.base.11", [4 x i8], %"class.zmq::array_item_t.base.13", ptr, ptr, i8, i8, i32, i32, i32, i32, i64, i64, i64, ptr, ptr, i32, i8, [3 x i8], %"struct.zmq::blob_t", i32, i8, [3 x i8], %"struct.zmq::endpoint_uri_pair_t", %"class.zmq::msg_t" }
%"class.zmq::object_t.base" = type <{ ptr, ptr, i32 }>
%"class.zmq::array_item_t.base" = type <{ ptr, i32 }>
%"class.zmq::array_item_t.base.11" = type <{ ptr, i32 }>
%"class.zmq::array_item_t.base.13" = type <{ ptr, i32 }>
%"struct.zmq::blob_t" = type <{ ptr, i64, i8, [7 x i8] }>
%"struct.zmq::endpoint_uri_pair_t" = type <{ %"class.std::__cxx11::basic_string", %"class.std::__cxx11::basic_string", i32, [4 x i8] }>
%"class.std::__cxx11::basic_string" = type { %"struct.std::__cxx11::basic_string<char>::_Alloc_hider", i64, %union.anon.14 }
%"struct.std::__cxx11::basic_string<char>::_Alloc_hider" = type { ptr }
%union.anon.14 = type { i64, [8 x i8] }
%"struct.std::_Vector_base.35" = type { %"struct.std::_Vector_base<unsigned char, std::allocator<unsigned char>>::_Vector_impl" }
%"struct.std::_Vector_base<unsigned char, std::allocator<unsigned char>>::_Vector_impl" = type { %"struct.std::_Vector_base<unsigned char, std::allocator<unsigned char>>::_Vector_impl_data" }
%"struct.std::_Vector_base<unsigned char, std::allocator<unsigned char>>::_Vector_impl_data" = type { ptr, ptr, ptr }
%"class.__gnu_cxx::__normal_iterator" = type { ptr }

@stderr = external global ptr, align 8
@.str.1 = private unnamed_addr constant [104 x i8] c"generated/home/dtcxzyw/WorkSpace/Projects/compilers/llvm-opt-benchmark/bench/libzmq/libzmq/src/pipe.cpp\00", align 1
@.str.3 = private unnamed_addr constant [12 x i8] c"%s (%s:%d)\0A\00", align 1

; Function Attrs: mustprogress nounwind uwtable
define linkonce_odr noundef nonnull align 8 dereferenceable(8) ptr @_ZNK9__gnu_cxx17__normal_iteratorIPKhSt6vectorIhSaIhEEE4baseEv(ptr noundef nonnull align 8 dereferenceable(8) %0) #9 comdat align 2 {
  %2 = alloca ptr, align 8
  store ptr %0, ptr %2, align 8, !tbaa !216
  %3 = load ptr, ptr %2, align 8
  %4 = getelementptr inbounds nuw %"class.__gnu_cxx::__normal_iterator", ptr %3, i32 0, i32 0
  ret ptr %4
}

; Function Attrs: mustprogress nounwind uwtable
define linkonce_odr void @_ZN9__gnu_cxx17__normal_iteratorIPKhSt6vectorIhSaIhEEEC2ERKS2_(ptr noundef nonnull align 8 dereferenceable(8) %0, ptr noundef nonnull align 8 dereferenceable(8) %1) unnamed_addr #9 comdat align 2 {
  %3 = alloca ptr, align 8
  %4 = alloca ptr, align 8
  store ptr %0, ptr %3, align 8, !tbaa !216
  store ptr %1, ptr %4, align 8, !tbaa !171
  %5 = load ptr, ptr %3, align 8
  %6 = getelementptr inbounds nuw %"class.__gnu_cxx::__normal_iterator", ptr %5, i32 0, i32 0
  %7 = load ptr, ptr %4, align 8, !tbaa !171
  %8 = load ptr, ptr %7, align 8, !tbaa !106
  store ptr %8, ptr %6, align 8, !tbaa !218
  ret void
}

; Function Attrs: inlinehint mustprogress nounwind uwtable
define linkonce_odr noundef zeroext i1 @_ZN9__gnu_cxxeqIPKhSt6vectorIhSaIhEEEEbRKNS_17__normal_iteratorIT_T0_EESB_(ptr noundef nonnull align 8 dereferenceable(8) %0, ptr noundef nonnull align 8 dereferenceable(8) %1) #10 comdat {
  %3 = alloca ptr, align 8
  %4 = alloca ptr, align 8
  store ptr %0, ptr %3, align 8, !tbaa !216
  store ptr %1, ptr %4, align 8, !tbaa !216
  %5 = load ptr, ptr %3, align 8, !tbaa !216
  %6 = call noundef nonnull align 8 dereferenceable(8) ptr @_ZNK9__gnu_cxx17__normal_iteratorIPKhSt6vectorIhSaIhEEE4baseEv(ptr noundef nonnull align 8 dereferenceable(8) %5) #17
  %7 = load ptr, ptr %6, align 8, !tbaa !106
  %8 = load ptr, ptr %4, align 8, !tbaa !216
  %9 = call noundef nonnull align 8 dereferenceable(8) ptr @_ZNK9__gnu_cxx17__normal_iteratorIPKhSt6vectorIhSaIhEEE4baseEv(ptr noundef nonnull align 8 dereferenceable(8) %8) #17
  %10 = load ptr, ptr %9, align 8, !tbaa !106
  %11 = icmp eq ptr %7, %10
  ret i1 %11
}

; Function Attrs: mustprogress nounwind uwtable
define linkonce_odr ptr @_ZNKSt6vectorIhSaIhEE3endEv(ptr noundef nonnull align 8 dereferenceable(24) %0) #9 comdat align 2 {
  %2 = alloca %"class.__gnu_cxx::__normal_iterator", align 8
  %3 = alloca ptr, align 8
  store ptr %0, ptr %3, align 8, !tbaa !111
  %4 = load ptr, ptr %3, align 8
  %5 = getelementptr inbounds nuw %"struct.std::_Vector_base.35", ptr %4, i32 0, i32 0
  %6 = getelementptr inbounds nuw %"struct.std::_Vector_base<unsigned char, std::allocator<unsigned char>>::_Vector_impl_data", ptr %5, i32 0, i32 1
  call void @_ZN9__gnu_cxx17__normal_iteratorIPKhSt6vectorIhSaIhEEEC2ERKS2_(ptr noundef nonnull align 8 dereferenceable(8) %2, ptr noundef nonnull align 8 dereferenceable(8) %6) #17
  %7 = getelementptr inbounds nuw %"class.__gnu_cxx::__normal_iterator", ptr %2, i32 0, i32 0
  %8 = load ptr, ptr %7, align 8
  ret ptr %8
}

; Function Attrs: mustprogress nounwind uwtable
define linkonce_odr ptr @_ZNKSt6vectorIhSaIhEE5beginEv(ptr noundef nonnull align 8 dereferenceable(24) %0) #9 comdat align 2 {
  %2 = alloca %"class.__gnu_cxx::__normal_iterator", align 8
  %3 = alloca ptr, align 8
  store ptr %0, ptr %3, align 8, !tbaa !111
  %4 = load ptr, ptr %3, align 8
  %5 = getelementptr inbounds nuw %"struct.std::_Vector_base.35", ptr %4, i32 0, i32 0
  %6 = getelementptr inbounds nuw %"struct.std::_Vector_base<unsigned char, std::allocator<unsigned char>>::_Vector_impl_data", ptr %5, i32 0, i32 0
  call void @_ZN9__gnu_cxx17__normal_iteratorIPKhSt6vectorIhSaIhEEEC2ERKS2_(ptr noundef nonnull align 8 dereferenceable(8) %2, ptr noundef nonnull align 8 dereferenceable(8) %6) #17
  %7 = getelementptr inbounds nuw %"class.__gnu_cxx::__normal_iterator", ptr %2, i32 0, i32 0
  %8 = load ptr, ptr %7, align 8
  ret ptr %8
}

; Function Attrs: mustprogress uwtable
define void @_ZN3zmq6pipe_t5flushEv(ptr noundef nonnull align 8 dereferenceable(328) %0) #0 align 2 {
  %2 = alloca ptr, align 8
  store ptr %0, ptr %2, align 8, !tbaa !27
  %3 = load ptr, ptr %2, align 8
  %4 = getelementptr inbounds nuw %"class.zmq::pipe_t", ptr %3, i32 0, i32 20
  %5 = load i32, ptr %4, align 8, !tbaa !110
  %6 = icmp eq i32 %5, 3
  br i1 %6, label %7, label %8

7:                                                ; preds = %1
  br label %22

8:                                                ; preds = %1
  %9 = getelementptr inbounds nuw %"class.zmq::pipe_t", ptr %3, i32 0, i32 8
  %10 = load ptr, ptr %9, align 8, !tbaa !108
  %11 = icmp ne ptr %10, null
  br i1 %11, label %12, label %22

12:                                               ; preds = %8
  %13 = getelementptr inbounds nuw %"class.zmq::pipe_t", ptr %3, i32 0, i32 8
  %14 = load ptr, ptr %13, align 8, !tbaa !108
  %15 = load ptr, ptr %14, align 8, !tbaa !31
  %16 = getelementptr inbounds ptr, ptr %15, i64 4
  %17 = load ptr, ptr %16, align 8
  %18 = call noundef zeroext i1 %17(ptr noundef nonnull align 8 dereferenceable(8) %14)
  br i1 %18, label %22, label %19

19:                                               ; preds = %12
  %20 = getelementptr inbounds nuw %"class.zmq::pipe_t", ptr %3, i32 0, i32 18
  %21 = load ptr, ptr %20, align 8, !tbaa !53
  call void @_ZN3zmq8object_t18send_activate_readEPNS_6pipe_tE(ptr noundef nonnull align 8 dereferenceable(20) %3, ptr noundef %21)
  br label %22

22:                                               ; preds = %7, %19, %12, %8
  ret void
}

; Function Attrs: mustprogress nounwind uwtable
define linkonce_odr noundef i64 @_ZNKSt6vectorIhSaIhEE4sizeEv(ptr noundef nonnull align 8 dereferenceable(24) %0) #9 comdat align 2 {
  %2 = alloca ptr, align 8
  store ptr %0, ptr %2, align 8, !tbaa !111
  %3 = load ptr, ptr %2, align 8
  %4 = getelementptr inbounds nuw %"struct.std::_Vector_base.35", ptr %3, i32 0, i32 0
  %5 = getelementptr inbounds nuw %"struct.std::_Vector_base<unsigned char, std::allocator<unsigned char>>::_Vector_impl_data", ptr %4, i32 0, i32 1
  %6 = load ptr, ptr %5, align 8, !tbaa !115
  %7 = getelementptr inbounds nuw %"struct.std::_Vector_base.35", ptr %3, i32 0, i32 0
  %8 = getelementptr inbounds nuw %"struct.std::_Vector_base<unsigned char, std::allocator<unsigned char>>::_Vector_impl_data", ptr %7, i32 0, i32 0
  %9 = load ptr, ptr %8, align 8, !tbaa !114
  %10 = ptrtoint ptr %6 to i64
  %11 = ptrtoint ptr %9 to i64
  %12 = sub i64 %10, %11
  ret i64 %12
}

; Function Attrs: mustprogress nounwind uwtable
define linkonce_odr noundef nonnull align 1 dereferenceable(1) ptr @_ZNKSt6vectorIhSaIhEEixEm(ptr noundef nonnull align 8 dereferenceable(24) %0, i64 noundef %1) #9 comdat align 2 {
  %3 = alloca ptr, align 8
  %4 = alloca i64, align 8
  store ptr %0, ptr %3, align 8, !tbaa !111
  store i64 %1, ptr %4, align 8, !tbaa !113
  %5 = load ptr, ptr %3, align 8
  %6 = getelementptr inbounds nuw %"struct.std::_Vector_base.35", ptr %5, i32 0, i32 0
  %7 = getelementptr inbounds nuw %"struct.std::_Vector_base<unsigned char, std::allocator<unsigned char>>::_Vector_impl_data", ptr %6, i32 0, i32 0
  %8 = load ptr, ptr %7, align 8, !tbaa !114
  %9 = load i64, ptr %4, align 8, !tbaa !113
  %10 = getelementptr inbounds nuw i8, ptr %8, i64 %9
  ret ptr %10
}

; Function Attrs: mustprogress nounwind uwtable
define linkonce_odr noundef zeroext i1 @_ZNKSt6vectorIhSaIhEE5emptyEv(ptr noundef nonnull align 8 dereferenceable(24) %0) #9 comdat align 2 {
  %2 = alloca ptr, align 8
  %3 = alloca %"class.__gnu_cxx::__normal_iterator", align 8
  %4 = alloca %"class.__gnu_cxx::__normal_iterator", align 8
  store ptr %0, ptr %2, align 8, !tbaa !111
  %5 = load ptr, ptr %2, align 8
  call void @llvm.lifetime.start.p0(i64 8, ptr %3) #17
  %6 = call ptr @_ZNKSt6vectorIhSaIhEE5beginEv(ptr noundef nonnull align 8 dereferenceable(24) %5) #17
  %7 = getelementptr inbounds nuw %"class.__gnu_cxx::__normal_iterator", ptr %3, i32 0, i32 0
  store ptr %6, ptr %7, align 8
  call void @llvm.lifetime.start.p0(i64 8, ptr %4) #17
  %8 = call ptr @_ZNKSt6vectorIhSaIhEE3endEv(ptr noundef nonnull align 8 dereferenceable(24) %5) #17
  %9 = getelementptr inbounds nuw %"class.__gnu_cxx::__normal_iterator", ptr %4, i32 0, i32 0
  store ptr %8, ptr %9, align 8
  %10 = call noundef zeroext i1 @_ZN9__gnu_cxxeqIPKhSt6vectorIhSaIhEEEEbRKNS_17__normal_iteratorIT_T0_EESB_(ptr noundef nonnull align 8 dereferenceable(8) %3, ptr noundef nonnull align 8 dereferenceable(8) %4) #17
  call void @llvm.lifetime.end.p0(i64 8, ptr %4) #17
  call void @llvm.lifetime.end.p0(i64 8, ptr %3) #17
  ret i1 %10
}

; Function Attrs: mustprogress uwtable
define void @_ZN3zmq6pipe_t15send_hiccup_msgERKSt6vectorIhSaIhEE(ptr noundef nonnull align 8 dereferenceable(328) %0, ptr noundef nonnull align 8 dereferenceable(24) %1) #0 align 2 {
  %3 = alloca ptr, align 8
  %4 = alloca ptr, align 8
  %5 = alloca %"class.zmq::msg_t", align 8
  %6 = alloca i32, align 4
  %7 = alloca ptr, align 8
  store ptr %0, ptr %3, align 8, !tbaa !27
  store ptr %1, ptr %4, align 8, !tbaa !111
  %8 = load ptr, ptr %3, align 8
  %9 = load ptr, ptr %4, align 8, !tbaa !111
  %10 = call noundef zeroext i1 @_ZNKSt6vectorIhSaIhEE5emptyEv(ptr noundef nonnull align 8 dereferenceable(24) %9) #17
  br i1 %10, label %46, label %11

11:                                               ; preds = %2
  %12 = getelementptr inbounds nuw %"class.zmq::pipe_t", ptr %8, i32 0, i32 8
  %13 = load ptr, ptr %12, align 8, !tbaa !108
  %14 = icmp ne ptr %13, null
  br i1 %14, label %15, label %46

15:                                               ; preds = %11
  call void @llvm.lifetime.start.p0(i64 64, ptr %5) #17
  call void @llvm.lifetime.start.p0(i64 4, ptr %6) #17
  %16 = load ptr, ptr %4, align 8, !tbaa !111
  %17 = call noundef nonnull align 1 dereferenceable(1) ptr @_ZNKSt6vectorIhSaIhEEixEm(ptr noundef nonnull align 8 dereferenceable(24) %16, i64 noundef 0) #17
  %18 = load ptr, ptr %4, align 8, !tbaa !111
  %19 = call noundef i64 @_ZNKSt6vectorIhSaIhEE4sizeEv(ptr noundef nonnull align 8 dereferenceable(24) %18) #17
  %20 = call noundef i32 @_ZN3zmq5msg_t11init_bufferEPKvm(ptr noundef nonnull align 8 dereferenceable(64) %5, ptr noundef %17, i64 noundef %19)
  store i32 %20, ptr %6, align 4, !tbaa !25
  br label %21

21:                                               ; preds = %15
  %22 = load i32, ptr %6, align 4, !tbaa !25
  %23 = icmp eq i32 %22, 0
  %24 = xor i1 %23, true
  %25 = zext i1 %24 to i64
  %26 = call i64 @llvm.expect.i64(i64 %25, i64 0)
  %27 = icmp ne i64 %26, 0
  br i1 %27, label %28, label %38

28:                                               ; preds = %21
  call void @llvm.lifetime.start.p0(i64 8, ptr %7) #17
  %29 = call ptr @__errno_location() #20
  %30 = load i32, ptr %29, align 4, !tbaa !25
  %31 = call ptr @strerror(i32 noundef %30) #17
  store ptr %31, ptr %7, align 8, !tbaa !106
  %32 = load ptr, ptr @stderr, align 8, !tbaa !21
  %33 = load ptr, ptr %7, align 8, !tbaa !106
  %34 = call i32 (ptr, ptr, ...) @fprintf(ptr noundef %32, ptr noundef @.str.3, ptr noundef %33, ptr noundef @.str.1, i32 noundef 600) #17
  %35 = load ptr, ptr @stderr, align 8, !tbaa !21
  %36 = call i32 @fflush(ptr noundef %35)
  %37 = load ptr, ptr %7, align 8, !tbaa !106
  call void @_ZN3zmq9zmq_abortEPKc(ptr noundef %37)
  call void @llvm.lifetime.end.p0(i64 8, ptr %7) #17
  br label %38

38:                                               ; preds = %28, %21
  br label %39

39:                                               ; preds = %38
  br label %40

40:                                               ; preds = %39
  %41 = getelementptr inbounds nuw %"class.zmq::pipe_t", ptr %8, i32 0, i32 8
  %42 = load ptr, ptr %41, align 8, !tbaa !108
  %43 = load ptr, ptr %42, align 8, !tbaa !31
  %44 = getelementptr inbounds ptr, ptr %43, i64 2
  %45 = load ptr, ptr %44, align 8
  call void %45(ptr noundef nonnull align 8 dereferenceable(8) %42, ptr noundef nonnull align 8 dereferenceable(64) %5, i1 noundef zeroext false)
  call void @_ZN3zmq6pipe_t5flushEv(ptr noundef nonnull align 8 dereferenceable(328) %8)
  call void @llvm.lifetime.end.p0(i64 4, ptr %6) #17
  call void @llvm.lifetime.end.p0(i64 64, ptr %5) #17
  br label %46

46:                                               ; preds = %40, %11, %2
  ret void
}