; Function Attrs: mustprogress uwtable
define void @_ZN3zmq6pipe_t15send_hiccup_msgERKSt6vectorIhSaIhEE(ptr noundef nonnull align 8 dereferenceable(328) %0, ptr noundef nonnull readonly align 8 captures(none) dereferenceable(24) %1) local_unnamed_addr #0 align 2 {
  %3 = alloca %"class.zmq::msg_t", align 8
  %4 = load ptr, ptr %1, align 8, !tbaa !136
  %5 = getelementptr inbounds nuw i8, ptr %1, i64 8
  %6 = load ptr, ptr %5, align 8, !tbaa !136
  %7 = icmp eq ptr %4, %6
  br i1 %7, label %42, label %8

8:                                                ; preds = %2
  %9 = getelementptr inbounds nuw i8, ptr %0, i64 80
  %10 = load ptr, ptr %9, align 8, !tbaa !103
  %.not = icmp eq ptr %10, null
  br i1 %.not, label %42, label %11

11:                                               ; preds = %8
  call void @llvm.lifetime.start.p0(i64 64, ptr nonnull %3) #25
  %12 = ptrtoint ptr %6 to i64
  %13 = ptrtoint ptr %4 to i64
  %14 = sub i64 %12, %13
  %15 = call noundef i32 @_ZN3zmq5msg_t11init_bufferEPKvm(ptr noundef nonnull align 8 dereferenceable(64) %3, ptr noundef nonnull %4, i64 noundef %14)
  %.not6 = icmp eq i32 %15, 0
  br i1 %.not6, label %24, label %16, !prof !47

16:                                               ; preds = %11
  %17 = tail call ptr @__errno_location() #28
  %18 = load i32, ptr %17, align 4, !tbaa !25
  %19 = call ptr @strerror(i32 noundef %18) #25
  %20 = load ptr, ptr @stderr, align 8, !tbaa !21
  %21 = call i32 (ptr, ptr, ...) @fprintf(ptr noundef %20, ptr noundef nonnull @.str.3, ptr noundef %19, ptr noundef nonnull @.str.1, i32 noundef 600) #26
  %22 = load ptr, ptr @stderr, align 8, !tbaa !21
  %23 = call i32 @fflush(ptr noundef %22)
  call void @_ZN3zmq9zmq_abortEPKc(ptr noundef %19)
  br label %24

24:                                               ; preds = %16, %11
  %25 = load ptr, ptr %9, align 8, !tbaa !103
  %26 = load ptr, ptr %25, align 8, !tbaa !9
  %27 = getelementptr inbounds nuw i8, ptr %26, i64 16
  %28 = load ptr, ptr %27, align 8
  call void %28(ptr noundef nonnull align 8 dereferenceable(8) %25, ptr noundef nonnull align 8 dereferenceable(64) %3, i1 noundef zeroext false)
  %29 = getelementptr inbounds nuw i8, ptr %0, i64 152
  %30 = load i32, ptr %29, align 8, !tbaa !105
  %31 = icmp eq i32 %30, 3
  br i1 %31, label %_ZN3zmq6pipe_t5flushEv.exit, label %32

32:                                               ; preds = %24
  %33 = load ptr, ptr %9, align 8, !tbaa !103
  %.not.i = icmp eq ptr %33, null
  br i1 %.not.i, label %_ZN3zmq6pipe_t5flushEv.exit, label %34

34:                                               ; preds = %32
  %35 = load ptr, ptr %33, align 8, !tbaa !9
  %36 = getelementptr inbounds nuw i8, ptr %35, i64 32
  %37 = load ptr, ptr %36, align 8
  %38 = call noundef zeroext i1 %37(ptr noundef nonnull align 8 dereferenceable(8) %33)
  br i1 %38, label %_ZN3zmq6pipe_t5flushEv.exit, label %39

39:                                               ; preds = %34
  %40 = getelementptr inbounds nuw i8, ptr %0, i64 136
  %41 = load ptr, ptr %40, align 8, !tbaa !29
  call void @_ZN3zmq8object_t18send_activate_readEPNS_6pipe_tE(ptr noundef nonnull align 8 dereferenceable(328) %0, ptr noundef %41)
  br label %_ZN3zmq6pipe_t5flushEv.exit

_ZN3zmq6pipe_t5flushEv.exit:                      ; preds = %24, %32, %34, %39
  call void @llvm.lifetime.end.p0(i64 64, ptr nonnull %3) #25
  br label %42

42:                                               ; preds = %_ZN3zmq6pipe_t5flushEv.exit, %8, %2
  ret void
}